; Function Attrs: mustprogress nofree norecurse nosync nounwind willreturn memory(read, inaccessiblemem: none) uwtable
define noundef zeroext i1 @_ZNK5arrow8internal7TDigest8is_emptyEv(ptr noundef nonnull readonly align 8 captures(none) dereferenceable(32) %0) local_unnamed_addr #10 align 2 {
  %2 = getelementptr inbounds nuw i8, ptr %0, i64 8
  %3 = load ptr, ptr %2, align 8, !tbaa !12
  %4 = load ptr, ptr %0, align 8, !tbaa !11
  %5 = icmp eq ptr %3, %4
  br i1 %5, label %6, label %12

6:                                                ; preds = %1
  %7 = getelementptr inbounds nuw i8, ptr %0, i64 24
  %8 = load ptr, ptr %7, align 8, !tbaa !3
  %9 = getelementptr inbounds nuw i8, ptr %8, i64 48
  %10 = load double, ptr %9, align 8, !tbaa !24
  %11 = fcmp oeq double %10, 0.000000e+00
  br label %12

12:                                               ; preds = %6, %1
  %13 = phi i1 [ false, %1 ], [ %11, %6 ]
  ret i1 %13
}